target datalayout = "e-m:e-p270:32:32-p271:32:32-p272:64:64-i64:64-i128:128-f80:128-n8:16:32:64-S128"
target triple = "x86_64-pc-linux-gnu"

%struct.Lexer = type { ptr, ptr, ptr, ptr, i32, i32, ptr, ptr, ptr, %struct.TokenData, %union.SourceSpan, i32, i32 }
%struct.TokenData = type { ptr, i64, %union.anon.86 }
%union.anon.86 = type { %struct.anon.89 }
%struct.anon.89 = type { %struct.Int128_, i8 }
%struct.Int128_ = type { i64, i64 }
%union.SourceSpan = type { i64 }
%struct.File = type { i16, ptr, i64, ptr, ptr, ptr }
%struct.anon.0 = type { i16, i8, i8, i32 }

@.str = private unnamed_addr constant [53 x i8] c"Invalid encoding - Unbalanced bidirectional markers.\00", align 1

; Function Attrs: nounwind uwtable
define internal void @begin_new_token(ptr noundef %0) #0 {
  %2 = alloca ptr, align 8
  store ptr %0, ptr %2, align 8
  %3 = load ptr, ptr %2, align 8
  %4 = getelementptr inbounds %struct.Lexer, ptr %3, i32 0, i32 3
  %5 = load ptr, ptr %4, align 8
  %6 = load ptr, ptr %2, align 8
  %7 = getelementptr inbounds %struct.Lexer, ptr %6, i32 0, i32 2
  store ptr %5, ptr %7, align 8
  %8 = load ptr, ptr %2, align 8
  %9 = getelementptr inbounds %struct.Lexer, ptr %8, i32 0, i32 4
  %10 = load i32, ptr %9, align 8
  %11 = load ptr, ptr %2, align 8
  %12 = getelementptr inbounds %struct.Lexer, ptr %11, i32 0, i32 5
  store i32 %10, ptr %12, align 4
  %13 = load ptr, ptr %2, align 8
  %14 = getelementptr inbounds %struct.Lexer, ptr %13, i32 0, i32 6
  %15 = load ptr, ptr %14, align 8
  %16 = load ptr, ptr %2, align 8
  %17 = getelementptr inbounds %struct.Lexer, ptr %16, i32 0, i32 7
  store ptr %15, ptr %17, align 8
  ret void
}

; Function Attrs: nounwind uwtable
define dso_local void @lexer_init(ptr noundef %0) #0 {
  %2 = alloca ptr, align 8
  %3 = alloca ptr, align 8
  %4 = alloca i32, align 4
  %5 = alloca i32, align 4
  %6 = alloca i8, align 1
  %7 = alloca i8, align 1
  %8 = alloca ptr, align 8
  store ptr %0, ptr %8, align 8
  %9 = load ptr, ptr %8, align 8
  %10 = getelementptr inbounds %struct.Lexer, ptr %9, i32 0, i32 8
  %11 = load ptr, ptr %10, align 8
  %12 = getelementptr inbounds %struct.File, ptr %11, i32 0, i32 1
  %13 = load ptr, ptr %12, align 8
  %14 = load ptr, ptr %8, align 8
  %15 = getelementptr inbounds %struct.Lexer, ptr %14, i32 0, i32 1
  store ptr %13, ptr %15, align 8
  %16 = load ptr, ptr %8, align 8
  %17 = getelementptr inbounds %struct.Lexer, ptr %16, i32 0, i32 1
  %18 = load ptr, ptr %17, align 8
  %19 = load ptr, ptr %8, align 8
  %20 = getelementptr inbounds %struct.Lexer, ptr %19, i32 0, i32 3
  store ptr %18, ptr %20, align 8
  %21 = load ptr, ptr %8, align 8
  %22 = getelementptr inbounds %struct.Lexer, ptr %21, i32 0, i32 3
  %23 = load ptr, ptr %22, align 8
  %24 = load ptr, ptr %8, align 8
  %25 = getelementptr inbounds %struct.Lexer, ptr %24, i32 0, i32 6
  store ptr %23, ptr %25, align 8
  %26 = load ptr, ptr %8, align 8
  %27 = getelementptr inbounds %struct.Lexer, ptr %26, i32 0, i32 4
  store i32 1, ptr %27, align 8
  %28 = load ptr, ptr %8, align 8
  %29 = getelementptr inbounds %struct.Lexer, ptr %28, i32 0, i32 8
  %30 = load ptr, ptr %29, align 8
  %31 = getelementptr inbounds %struct.File, ptr %30, i32 0, i32 0
  %32 = load i16, ptr %31, align 8
  %33 = load ptr, ptr %8, align 8
  %34 = getelementptr inbounds %struct.Lexer, ptr %33, i32 0, i32 10
  %35 = getelementptr inbounds %struct.anon.0, ptr %34, i32 0, i32 0
  store i16 %32, ptr %35, align 8
  %36 = load ptr, ptr %8, align 8
  %37 = getelementptr inbounds %struct.Lexer, ptr %36, i32 0, i32 12
  store i32 0, ptr %37, align 4
  %38 = load ptr, ptr %8, align 8
  call void @begin_new_token(ptr noundef %38)
  %39 = load ptr, ptr %8, align 8
  store ptr %39, ptr %2, align 8
  %40 = load ptr, ptr %2, align 8
  %41 = getelementptr inbounds %struct.Lexer, ptr %40, i32 0, i32 3
  %42 = load ptr, ptr %41, align 8
  store ptr %42, ptr %3, align 8
  store i32 0, ptr %5, align 4
  br label %43

43:                                               ; preds = %115, %52, %1
  %44 = load ptr, ptr %3, align 8
  %45 = getelementptr inbounds i8, ptr %44, i32 1
  store ptr %45, ptr %3, align 8
  %46 = load i8, ptr %44, align 1
  %47 = zext i8 %46 to i32
  store i32 %47, ptr %4, align 4
  %48 = icmp ne i32 %47, 0
  br i1 %48, label %49, label %116

49:                                               ; preds = %43
  %50 = load i32, ptr %4, align 4
  %51 = icmp ne i32 %50, 226
  br i1 %51, label %52, label %53

52:                                               ; preds = %49
  br label %43, !llvm.loop !7

53:                                               ; preds = %49
  %54 = load ptr, ptr %3, align 8
  %55 = load i8, ptr %54, align 1
  store i8 %55, ptr %6, align 1
  %56 = load i8, ptr %6, align 1
  %57 = zext i8 %56 to i32
  %58 = icmp eq i32 %57, 0
  br i1 %58, label %59, label %60

59:                                               ; preds = %53
  br label %116

60:                                               ; preds = %53
  %61 = load ptr, ptr %3, align 8
  %62 = getelementptr inbounds i8, ptr %61, i64 1
  %63 = load i8, ptr %62, align 1
  store i8 %63, ptr %7, align 1
  %64 = load ptr, ptr %3, align 8
  %65 = load i8, ptr %64, align 1
  %66 = zext i8 %65 to i32
  switch i32 %66, label %114 [
    i32 128, label %67
    i32 129, label %90
  ]

67:                                               ; preds = %60
  %68 = load i8, ptr %7, align 1
  %69 = zext i8 %68 to i32
  %70 = icmp eq i32 %69, 172
  br i1 %70, label %71, label %78

71:                                               ; preds = %67
  %72 = load i32, ptr %5, align 4
  %73 = add nsw i32 %72, -1
  store i32 %73, ptr %5, align 4
  %74 = load i32, ptr %5, align 4
  %75 = icmp slt i32 %74, 0
  br i1 %75, label %76, label %77

76:                                               ; preds = %71
  br label %117

77:                                               ; preds = %71
  br label %78

78:                                               ; preds = %77, %67
  %79 = load i8, ptr %7, align 1
  %80 = zext i8 %79 to i32
  %81 = icmp sge i32 %80, 170
  br i1 %81, label %82, label %89

82:                                               ; preds = %78
  %83 = load i8, ptr %7, align 1
  %84 = zext i8 %83 to i32
  %85 = icmp sle i32 %84, 174
  br i1 %85, label %86, label %89

86:                                               ; preds = %82
  %87 = load i32, ptr %5, align 4
  %88 = add nsw i32 %87, 1
  store i32 %88, ptr %5, align 4
  br label %89

89:                                               ; preds = %86, %82, %78
  br label %115

90:                                               ; preds = %60
  %91 = load i8, ptr %7, align 1
  %92 = zext i8 %91 to i32
  %93 = icmp sge i32 %92, 166
  br i1 %93, label %94, label %101

94:                                               ; preds = %90
  %95 = load i8, ptr %7, align 1
  %96 = zext i8 %95 to i32
  %97 = icmp sle i32 %96, 168
  br i1 %97, label %98, label %101

98:                                               ; preds = %94
  %99 = load i32, ptr %5, align 4
  %100 = add nsw i32 %99, 1
  store i32 %100, ptr %5, align 4
  br label %113

101:                                              ; preds = %94, %90
  %102 = load i8, ptr %7, align 1
  %103 = zext i8 %102 to i32
  %104 = icmp eq i32 %103, 169
  br i1 %104, label %105, label %112

105:                                              ; preds = %101
  %106 = load i32, ptr %5, align 4
  %107 = add nsw i32 %106, -1
  store i32 %107, ptr %5, align 4
  %108 = load i32, ptr %5, align 4
  %109 = icmp slt i32 %108, 0
  br i1 %109, label %110, label %111

110:                                              ; preds = %105
  br label %117

111:                                              ; preds = %105
  br label %112

112:                                              ; preds = %111, %101
  br label %113

113:                                              ; preds = %112, %98
  br label %115

114:                                              ; preds = %60
  br label %115

115:                                              ; preds = %114, %113, %89
  br label %43, !llvm.loop !9

116:                                              ; preds = %59, %43
  br label %117

117:                                              ; preds = %116, %110, %76
  %118 = load i32, ptr %5, align 4
  %119 = icmp ne i32 %118, 0
  br i1 %119, label %120, label %123

120:                                              ; preds = %117
  %121 = load ptr, ptr %2, align 8
  %122 = call zeroext i1 (ptr, ptr, ...) @add_error_token_at_start(ptr noundef %121, ptr noundef @.str)
  br label %123

123:                                              ; preds = %120, %117
  ret void
}