; Function Attrs: nounwind uwtable
define dso_local void @lexer_init(ptr nocapture noundef %0) local_unnamed_addr #0 {
  %2 = getelementptr inbounds i8, ptr %0, i64 56
  %3 = load ptr, ptr %2, align 8
  %4 = getelementptr inbounds i8, ptr %3, i64 8
  %5 = load ptr, ptr %4, align 8
  %6 = getelementptr inbounds i8, ptr %0, i64 8
  store ptr %5, ptr %6, align 8
  %7 = getelementptr inbounds i8, ptr %0, i64 24
  store ptr %5, ptr %7, align 8
  %8 = getelementptr inbounds i8, ptr %0, i64 40
  store ptr %5, ptr %8, align 8
  %9 = getelementptr inbounds i8, ptr %0, i64 32
  store i32 1, ptr %9, align 8
  %10 = load i16, ptr %3, align 8
  %11 = getelementptr inbounds i8, ptr %0, i64 104
  store i16 %10, ptr %11, align 8
  %12 = getelementptr inbounds i8, ptr %0, i64 116
  store i32 0, ptr %12, align 4
  %13 = getelementptr inbounds i8, ptr %0, i64 16
  store ptr %5, ptr %13, align 8
  %14 = getelementptr inbounds i8, ptr %0, i64 36
  store i32 1, ptr %14, align 4
  %15 = getelementptr inbounds i8, ptr %0, i64 48
  store ptr %5, ptr %15, align 8
  br label %.outer.outer

.outer.outer:                                     ; preds = %.outer.outer.backedge, %1
  %.037.ph.ph = phi i32 [ 0, %1 ], [ %.037.ph.ph.be, %.outer.outer.backedge ]
  %.0.ph.ph = phi ptr [ %5, %1 ], [ %17, %.outer.outer.backedge ]
  br label %.outer

.outer:                                           ; preds = %.outer.backedge, %.outer.outer
  %.0.ph = phi ptr [ %.0.ph.ph, %.outer.outer ], [ %17, %.outer.backedge ]
  br label %16

16:                                               ; preds = %.outer, %16
  %.0 = phi ptr [ %17, %16 ], [ %.0.ph, %.outer ]
  %17 = getelementptr inbounds i8, ptr %.0, i64 1
  %18 = load i8, ptr %.0, align 1
  switch i8 %18, label %16 [
    i8 0, label %.loopexit
    i8 -30, label %19
  ]

19:                                               ; preds = %16
  %20 = load i8, ptr %17, align 1
  %21 = icmp eq i8 %20, 0
  br i1 %21, label %.loopexit, label %22

22:                                               ; preds = %19
  %23 = getelementptr inbounds i8, ptr %.0, i64 2
  %24 = load i8, ptr %23, align 1
  switch i8 %20, label %.outer.backedge [
    i8 -128, label %25
    i8 -127, label %33
  ]

.outer.backedge:                                  ; preds = %22, %37
  br label %.outer, !llvm.loop !7

25:                                               ; preds = %22
  %26 = icmp eq i8 %24, -84
  br i1 %26, label %27, label %30

27:                                               ; preds = %25
  %28 = add nsw i32 %.037.ph.ph, -1
  %29 = icmp slt i32 %.037.ph.ph, 1
  br i1 %29, label %.thread, label %30

30:                                               ; preds = %27, %25
  %.1 = phi i32 [ %28, %27 ], [ %.037.ph.ph, %25 ]
  %31 = add i8 %24, 86
  %or.cond = icmp ult i8 %31, 5
  %32 = zext i1 %or.cond to i32
  %spec.select = add nsw i32 %.1, %32
  br label %.outer.outer.backedge

33:                                               ; preds = %22
  %34 = add i8 %24, 90
  %or.cond5 = icmp ult i8 %34, 3
  br i1 %or.cond5, label %35, label %37

35:                                               ; preds = %33
  %36 = add nsw i32 %.037.ph.ph, 1
  br label %.outer.outer.backedge

.outer.outer.backedge:                            ; preds = %35, %39, %30
  %.037.ph.ph.be = phi i32 [ %spec.select, %30 ], [ %40, %39 ], [ %36, %35 ]
  br label %.outer.outer, !llvm.loop !7

37:                                               ; preds = %33
  %38 = icmp eq i8 %24, -87
  br i1 %38, label %39, label %.outer.backedge

39:                                               ; preds = %37
  %40 = add nsw i32 %.037.ph.ph, -1
  %41 = icmp slt i32 %.037.ph.ph, 1
  br i1 %41, label %.thread, label %.outer.outer.backedge

.loopexit:                                        ; preds = %19, %16
  %.not45 = icmp eq i32 %.037.ph.ph, 0
  br i1 %.not45, label %42, label %.thread

.thread:                                          ; preds = %27, %39, %.loopexit
  tail call void (ptr, ptr, ...) @add_error_token_at_start(ptr noundef %0, ptr noundef nonnull @.str)
  br label %42

42:                                               ; preds = %.thread, %.loopexit
  ret void
}